(dp0
S'cinemas'
p1
(dp2
S'CONTENT'
p3
(lp4
ccollections
deque
p5
((lp6
I1
aS'asd'
p7
aS'asd'
p8
atp9
Rp10
ag5
((lp11
I2
aS'qwe'
p12
aS'qwe'
p13
atp14
Rp15
asS'COLUMNS_TYPES'
p16
(c__builtin__
int
p17
c__builtin__
str
p18
g18
tp19
sS'COLUMNS'
p20
(S'id'
p21
S'name'
p22
S'address'
p23
tp24
ssS'sessions'
p25
(dp26
g3
(lp27
sg16
(g17
g18
c__builtin__
long
p28
g17
tp29
sg20
(g21
g22
S'time'
p30
S'cinema_id'
p31
tp32
ss.