(dp0
S'cinemas'
p1
(dp2
S'CONTENT'
p3
(lp4
sS'COLUMNS_TYPES'
p5
(c__builtin__
int
p6
c__builtin__
str
p7
g7
tp8
sS'COLUMNS'
p9
(S'id'
p10
S'name'
p11
S'address'
p12
tp13
ssS'sessions'
p14
(dp15
g3
(lp16
sg5
(g6
g7
c__builtin__
long
p17
g6
tp18
sg9
(g10
g11
S'time'
p19
S'cinema_id'
p20
tp21
ss.