(dp0
S'sessions'
p1
(dp2
S'CONTENT'
p3
(lp4
sS'COLUMNS_TYPES'
p5
(c__builtin__
int
p6
c__builtin__
str
p7
c__builtin__
long
p8
g6
tp9
sS'COLUMNS'
p10
(S'id'
p11
S'name'
p12
S'time'
p13
S'cinema_id'
p14
tp15
ssS'cinemas'
p16
(dp17
g3
(lp18
ccollections
deque
p19
((lp20
I1
aS'asd'
p21
aS'asd'
p22
atp23
Rp24
ag19
((lp25
I2
aS'qwe'
p26
aS'qwe'
p27
atp28
Rp29
asg5
(g6
g7
g7
tp30
sg10
(g11
g12
S'address'
p31
tp32
ss.