(dp0
S'cinemas'
p1
(dp2
S'CONTENT'
p3
(lp4
(lp5
S'asd'
p6
aS'asd'
p7
aasS'COLUMNS_TYPES'
p8
(c__builtin__
int
p9
c__builtin__
str
p10
g10
tp11
sS'COLUMNS'
p12
(S'id'
p13
S'name'
p14
S'address'
p15
tp16
ssS'sessions'
p17
(dp18
g3
(lp19
sg8
(g9
g10
c__builtin__
long
p20
g9
tp21
sg12
(g13
g14
S'time'
p22
S'cinema_id'
p23
tp24
ss.